((dp0
S'FIBER616'
p1
I81
sS'FIBER615'
p2
I82
sS'FIBER614'
p3
I83
sS'FIBER613'
p4
I84
sS'FIBER612'
p5
I85
sS'FIBER611'
p6
I86
sS'FIBER610'
p7
I87
sS'FIBER110'
p8
I7
sS'FIBER506'
p9
I75
sS'FIBER112'
p10
I5
sS'FIBER113'
p11
I4
sS'FIBER114'
p12
I3
sS'FIBER115'
p13
I2
sS'FIBER116'
p14
I1
sS'FIBER509'
p15
I72
sS'FIBER508'
p16
I73
sS'FIBER213'
p17
I20
sS'FIBER212'
p18
I21
sS'FIBER211'
p19
I22
sS'FIBER210'
p20
I23
sS'FIBER216'
p21
I17
sS'FIBER215'
p22
I18
sS'FIBER214'
p23
I19
sS'FIBER103'
p24
I14
sS'FIBER102'
p25
I15
sS'FIBER101'
p26
I16
sS'FIBER107'
p27
I10
sS'FIBER106'
p28
I11
sS'FIBER105'
p29
I12
sS'FIBER104'
p30
I13
sS'FIBER109'
p31
I8
sS'FIBER108'
p32
I9
sS'FIBER507'
p33
I74
sS'FIBER111'
p34
I6
sS'FIBER505'
p35
I76
sS'FIBER504'
p36
I77
sS'FIBER503'
p37
I78
sS'FIBER502'
p38
I79
sS'FIBER501'
p39
I80
sS'FIBER408'
p40
I57
sS'FIBER409'
p41
I56
sS'FIBER406'
p42
I59
sS'FIBER407'
p43
I58
sS'FIBER404'
p44
I61
sS'FIBER405'
p45
I60
sS'FIBER402'
p46
I63
sS'FIBER403'
p47
I62
sS'FIBER401'
p48
I64
sS'FIBER411'
p49
I54
sS'FIBER410'
p50
I55
sS'FIBER413'
p51
I52
sS'FIBER412'
p52
I53
sS'FIBER415'
p53
I50
sS'FIBER414'
p54
I51
sS'FIBER416'
p55
I49
sS'FIBER802'
p56
I127
sS'FIBER803'
p57
I126
sS'FIBER801'
p58
I128
sS'FIBER806'
p59
I123
sS'FIBER807'
p60
I122
sS'FIBER804'
p61
I125
sS'FIBER805'
p62
I124
sS'FIBER808'
p63
I121
sS'FIBER809'
p64
I120
sS'FIBER712'
p65
I101
sS'FIBER713'
p66
I100
sS'FIBER710'
p67
I103
sS'FIBER711'
p68
I102
sS'FIBER716'
p69
I97
sS'FIBER714'
p70
I99
sS'FIBER715'
p71
I98
sS'FIBER316'
p72
I33
sS'FIBER314'
p73
I35
sS'FIBER315'
p74
I34
sS'FIBER312'
p75
I37
sS'FIBER313'
p76
I36
sS'FIBER310'
p77
I39
sS'FIBER311'
p78
I38
sS'FIBER815'
p79
I114
sS'FIBER814'
p80
I115
sS'FIBER816'
p81
I113
sS'FIBER811'
p82
I118
sS'FIBER810'
p83
I119
sS'FIBER813'
p84
I116
sS'FIBER812'
p85
I117
sS'FIBER705'
p86
I108
sS'FIBER704'
p87
I109
sS'FIBER707'
p88
I106
sS'FIBER706'
p89
I107
sS'FIBER701'
p90
I112
sS'FIBER703'
p91
I110
sS'FIBER702'
p92
I111
sS'FIBER709'
p93
I104
sS'FIBER708'
p94
I105
sS'FIBER301'
p95
I48
sS'FIBER303'
p96
I46
sS'FIBER302'
p97
I47
sS'FIBER305'
p98
I44
sS'FIBER304'
p99
I45
sS'FIBER307'
p100
I42
sS'FIBER306'
p101
I43
sS'FIBER309'
p102
I40
sS'FIBER308'
p103
I41
sS'FIBER608'
p104
I89
sS'FIBER609'
p105
I88
sS'FIBER604'
p106
I93
sS'FIBER605'
p107
I92
sS'FIBER606'
p108
I91
sS'FIBER607'
p109
I90
sS'FIBER601'
p110
I96
sS'FIBER602'
p111
I95
sS'FIBER603'
p112
I94
sS'FIBER514'
p113
I67
sS'FIBER515'
p114
I66
sS'FIBER516'
p115
I65
sS'FIBER510'
p116
I71
sS'FIBER511'
p117
I70
sS'FIBER512'
p118
I69
sS'FIBER513'
p119
I68
sS'FIBER208'
p120
I25
sS'FIBER209'
p121
I24
sS'FIBER201'
p122
I32
sS'FIBER202'
p123
I31
sS'FIBER203'
p124
I30
sS'FIBER204'
p125
I29
sS'FIBER205'
p126
I28
sS'FIBER206'
p127
I27
sS'FIBER207'
p128
I26
s(dp129
S'FIBER616'
p130
I33
sS'FIBER615'
p131
I34
sS'FIBER614'
p132
I35
sS'FIBER613'
p133
I36
sS'FIBER612'
p134
I37
sS'FIBER611'
p135
I38
sS'FIBER610'
p136
I39
sS'FIBER507'
p137
I58
sS'FIBER506'
p138
I59
sS'FIBER505'
p139
I60
sS'FIBER504'
p140
I61
sS'FIBER503'
p141
I62
sS'FIBER502'
p142
I63
sS'FIBER501'
p143
I64
sS'FIBER509'
p144
I56
sS'FIBER508'
p145
I57
sS'FIBER213'
p146
I100
sS'FIBER212'
p147
I101
sS'FIBER211'
p148
I102
sS'FIBER210'
p149
I103
sS'FIBER216'
p150
I97
sS'FIBER215'
p151
I98
sS'FIBER214'
p152
I99
sS'FIBER103'
p153
I126
sS'FIBER102'
p154
I127
sS'FIBER101'
p155
I128
sS'FIBER107'
p156
I122
sS'FIBER106'
p157
I123
sS'FIBER105'
p158
I124
sS'FIBER104'
p159
I125
sS'FIBER109'
p160
I120
sS'FIBER108'
p161
I121
sS'FIBER110'
p162
I119
sS'FIBER111'
p163
I118
sS'FIBER112'
p164
I117
sS'FIBER113'
p165
I116
sS'FIBER114'
p166
I115
sS'FIBER115'
p167
I114
sS'FIBER116'
p168
I113
sS'FIBER408'
p169
I73
sS'FIBER409'
p170
I72
sS'FIBER406'
p171
I75
sS'FIBER407'
p172
I74
sS'FIBER404'
p173
I77
sS'FIBER405'
p174
I76
sS'FIBER402'
p175
I79
sS'FIBER403'
p176
I78
sS'FIBER401'
p177
I80
sS'FIBER411'
p178
I70
sS'FIBER410'
p179
I71
sS'FIBER413'
p180
I68
sS'FIBER412'
p181
I69
sS'FIBER415'
p182
I66
sS'FIBER414'
p183
I67
sS'FIBER416'
p184
I65
sS'FIBER802'
p185
I15
sS'FIBER803'
p186
I14
sS'FIBER801'
p187
I16
sS'FIBER806'
p188
I11
sS'FIBER807'
p189
I10
sS'FIBER804'
p190
I13
sS'FIBER805'
p191
I12
sS'FIBER808'
p192
I9
sS'FIBER809'
p193
I8
sS'FIBER712'
p194
I21
sS'FIBER713'
p195
I20
sS'FIBER710'
p196
I23
sS'FIBER711'
p197
I22
sS'FIBER716'
p198
I17
sS'FIBER714'
p199
I19
sS'FIBER715'
p200
I18
sS'FIBER316'
p201
I81
sS'FIBER314'
p202
I83
sS'FIBER315'
p203
I82
sS'FIBER312'
p204
I85
sS'FIBER313'
p205
I84
sS'FIBER310'
p206
I87
sS'FIBER311'
p207
I86
sS'FIBER815'
p208
I2
sS'FIBER814'
p209
I3
sS'FIBER816'
p210
I1
sS'FIBER811'
p211
I6
sS'FIBER810'
p212
I7
sS'FIBER813'
p213
I4
sS'FIBER812'
p214
I5
sS'FIBER705'
p215
I28
sS'FIBER704'
p216
I29
sS'FIBER707'
p217
I26
sS'FIBER706'
p218
I27
sS'FIBER701'
p219
I32
sS'FIBER703'
p220
I30
sS'FIBER702'
p221
I31
sS'FIBER709'
p222
I24
sS'FIBER708'
p223
I25
sS'FIBER301'
p224
I96
sS'FIBER303'
p225
I94
sS'FIBER302'
p226
I95
sS'FIBER305'
p227
I92
sS'FIBER304'
p228
I93
sS'FIBER307'
p229
I90
sS'FIBER306'
p230
I91
sS'FIBER309'
p231
I88
sS'FIBER308'
p232
I89
sS'FIBER608'
p233
I41
sS'FIBER609'
p234
I40
sS'FIBER604'
p235
I45
sS'FIBER605'
p236
I44
sS'FIBER606'
p237
I43
sS'FIBER607'
p238
I42
sS'FIBER601'
p239
I48
sS'FIBER602'
p240
I47
sS'FIBER603'
p241
I46
sS'FIBER514'
p242
I51
sS'FIBER515'
p243
I50
sS'FIBER516'
p244
I49
sS'FIBER510'
p245
I55
sS'FIBER511'
p246
I54
sS'FIBER512'
p247
I53
sS'FIBER513'
p248
I52
sS'FIBER208'
p249
I105
sS'FIBER209'
p250
I104
sS'FIBER201'
p251
I112
sS'FIBER202'
p252
I111
sS'FIBER203'
p253
I110
sS'FIBER204'
p254
I109
sS'FIBER205'
p255
I108
sS'FIBER206'
p256
I107
sS'FIBER207'
p257
I106
s(lp258
g14
ag13
ag12
ag11
ag10
ag34
ag8
ag31
ag32
ag27
ag28
ag29
ag30
ag24
ag25
ag26
ag21
ag22
ag23
ag17
ag18
ag19
ag20
ag121
ag120
ag128
ag127
ag126
ag125
ag124
ag123
ag122
ag72
ag74
ag73
ag76
ag75
ag78
ag77
ag102
ag103
ag100
ag101
ag98
ag99
ag96
ag97
ag95
ag55
ag53
ag54
ag51
ag52
ag49
ag50
ag41
ag40
ag43
ag42
ag45
ag44
ag47
ag46
ag48
ag115
ag114
ag113
ag119
ag118
ag117
ag116
ag15
ag16
ag33
ag9
ag35
ag36
ag37
ag38
ag39
ag1
ag2
ag3
ag4
ag5
ag6
ag7
ag105
ag104
ag109
ag108
ag107
ag106
ag112
ag111
ag110
ag69
ag71
ag70
ag66
ag65
ag68
ag67
ag93
ag94
ag88
ag89
ag86
ag87
ag91
ag92
ag90
ag81
ag79
ag80
ag84
ag85
ag82
ag83
ag64
ag63
ag60
ag59
ag62
ag61
ag57
ag56
ag58
a(lp259
g210
ag208
ag209
ag213
ag214
ag211
ag212
ag193
ag192
ag189
ag188
ag191
ag190
ag186
ag185
ag187
ag198
ag200
ag199
ag195
ag194
ag197
ag196
ag222
ag223
ag217
ag218
ag215
ag216
ag220
ag221
ag219
ag130
ag131
ag132
ag133
ag134
ag135
ag136
ag234
ag233
ag238
ag237
ag236
ag235
ag241
ag240
ag239
ag244
ag243
ag242
ag248
ag247
ag246
ag245
ag144
ag145
ag137
ag138
ag139
ag140
ag141
ag142
ag143
ag184
ag182
ag183
ag180
ag181
ag178
ag179
ag170
ag169
ag172
ag171
ag174
ag173
ag176
ag175
ag177
ag201
ag203
ag202
ag205
ag204
ag207
ag206
ag231
ag232
ag229
ag230
ag227
ag228
ag225
ag226
ag224
ag150
ag151
ag152
ag146
ag147
ag148
ag149
ag250
ag249
ag257
ag256
ag255
ag254
ag253
ag252
ag251
ag168
ag167
ag166
ag165
ag164
ag163
ag162
ag160
ag161
ag156
ag157
ag158
ag159
ag153
ag154
ag155
atp260
.